; Function Attrs: mustprogress nounwind uwtable
define dso_local void @_ZN5clang28MultiplexASTMutationListener22AddedCXXImplicitMemberEPKNS_13CXXRecordDeclEPKNS_4DeclE(ptr noundef nonnull readonly align 8 captures(none) dereferenceable(32) %0, ptr noundef %1, ptr noundef %2) unnamed_addr #0 align 2 {
  %4 = getelementptr inbounds nuw i8, ptr %0, i64 8
  %5 = getelementptr inbounds nuw i8, ptr %0, i64 16
  %6 = load ptr, ptr %5, align 8
  %7 = load ptr, ptr %4, align 8
  %8 = ptrtoint ptr %6 to i64
  %9 = ptrtoint ptr %7 to i64
  %10 = sub i64 %8, %9
  %11 = ashr exact i64 %10, 3
  %.not6 = icmp eq ptr %6, %7
  br i1 %.not6, label %._crit_edge, label %.lr.ph

.lr.ph:                                           ; preds = %3, %.lr.ph
  %.07 = phi i64 [ %18, %.lr.ph ], [ 0, %3 ]
  %12 = load ptr, ptr %4, align 8
  %13 = getelementptr inbounds ptr, ptr %12, i64 %.07
  %14 = load ptr, ptr %13, align 8
  %15 = load ptr, ptr %14, align 8
  %16 = getelementptr inbounds nuw i8, ptr %15, i64 32
  %17 = load ptr, ptr %16, align 8
  tail call void %17(ptr noundef nonnull align 8 dereferenceable(8) %14, ptr noundef %1, ptr noundef %2) #14
  %18 = add i64 %.07, 1
  %.not = icmp eq i64 %18, %11
  br i1 %.not, label %._crit_edge, label %.lr.ph, !llvm.loop !14

._crit_edge:                                      ; preds = %.lr.ph, %3
  ret void
}